target datalayout = "e-m:e-p270:32:32-p271:32:32-p272:64:64-i64:64-i128:128-f80:128-n8:16:32:64-S128"
target triple = "x86_64-pc-linux-gnu"

%struct._zend_executor_globals = type { %struct._zval_struct, %struct._zval_struct, [32 x ptr], ptr, ptr, %struct._zend_array, %struct._zend_array, ptr, i32, i32, ptr, ptr, ptr, ptr, ptr, ptr, i64, ptr, ptr, i32, i32, i64, i32, i32, i32, i8, i8, %struct.zend_atomic_bool_s, %struct.zend_atomic_bool_s, ptr, i64, ptr, ptr, %struct._zend_array, %struct._zend_array, i32, i8, %struct._zval_struct, %struct._zval_struct, %struct._zend_stack, %struct._zend_stack, %struct._zend_stack, ptr, i32, i32, i64, ptr, ptr, ptr, %struct._zend_objects_store, ptr, ptr, ptr, [3 x %struct._zend_op], ptr, i8, i8, i64, i32, i32, ptr, [16 x %struct._HashTableIterator], ptr, %union._zend_function, %struct._zend_op, %struct._zend_array, i64, %struct.zend_get_gc_buffer, ptr, ptr, ptr, i64, i8, i32, ptr, ptr, i64, %struct._zend_call_stack, i64, i64, [6 x ptr] }
%struct.zend_atomic_bool_s = type { i8 }
%struct._zval_struct = type { %union._zend_value, %union.anon, %union.anon.2 }
%union._zend_value = type { i64 }
%union.anon = type { i32 }
%union.anon.2 = type { i32 }
%struct._zend_stack = type { i32, i32, i32, ptr }
%struct._zend_objects_store = type { ptr, i32, i32, i32 }
%struct._HashTableIterator = type { ptr, i32, i32 }
%union._zend_function = type { %struct._zend_op_array }
%struct._zend_op_array = type { i8, [3 x i8], i32, ptr, ptr, ptr, i32, i32, ptr, ptr, ptr, ptr, i32, i32, i32, i32, ptr, ptr, ptr, ptr, ptr, i32, i32, ptr, ptr, ptr, i32, i32, i32, i32, ptr, ptr, [6 x ptr] }
%struct._zend_op = type { ptr, %union._znode_op, %union._znode_op, %union._znode_op, i32, i32, i8, i8, i8, i8 }
%union._znode_op = type { i32 }
%struct._zend_array = type { %struct._zend_refcounted_h, %union.anon.4, i32, %union.anon.6, i32, i32, i32, i32, i64, ptr }
%struct._zend_refcounted_h = type { i32, %union.anon.3 }
%union.anon.3 = type { i32 }
%union.anon.4 = type { i32 }
%union.anon.6 = type { ptr }
%struct.zend_get_gc_buffer = type { ptr, ptr, ptr }
%struct._zend_call_stack = type { ptr, i64 }
%struct._zend_ini_entry = type { ptr, ptr, ptr, ptr, ptr, ptr, ptr, ptr, i32, i8, i8, i8 }
%struct._zend_string = type { %struct._zend_refcounted_h, i64, i64, [1 x i8] }

@executor_globals = external global %struct._zend_executor_globals, align 8
@.str = private unnamed_addr constant [1 x i8] zeroinitializer, align 1

; Function Attrs: nounwind uwtable
define ptr @zend_ini_string_ex(ptr noundef %0, i64 noundef %1, i32 noundef %2, ptr noundef %3) #0 {
  %5 = alloca ptr, align 8
  %6 = alloca ptr, align 8
  %7 = alloca ptr, align 8
  %8 = alloca i64, align 8
  %9 = alloca ptr, align 8
  %10 = alloca ptr, align 8
  %11 = alloca ptr, align 8
  %12 = alloca i64, align 8
  %13 = alloca i32, align 4
  %14 = alloca ptr, align 8
  %15 = alloca ptr, align 8
  store ptr %0, ptr %11, align 8
  store i64 %1, ptr %12, align 8
  store i32 %2, ptr %13, align 4
  store ptr %3, ptr %14, align 8
  %16 = load ptr, ptr getelementptr inbounds (%struct._zend_executor_globals, ptr @executor_globals, i32 0, i32 46), align 8
  %17 = load ptr, ptr %11, align 8
  %18 = load i64, ptr %12, align 8
  store ptr %16, ptr %6, align 8
  store ptr %17, ptr %7, align 8
  store i64 %18, ptr %8, align 8
  %19 = load ptr, ptr %6, align 8
  %20 = load ptr, ptr %7, align 8
  %21 = load i64, ptr %8, align 8
  %22 = call ptr @zend_hash_str_find(ptr noundef %19, ptr noundef %20, i64 noundef %21) #13
  store ptr %22, ptr %9, align 8
  %23 = load ptr, ptr %9, align 8
  %24 = icmp ne ptr %23, null
  br i1 %24, label %25, label %31

25:                                               ; preds = %4
  %26 = load ptr, ptr %9, align 8
  %27 = load ptr, ptr %26, align 8
  %28 = icmp ne ptr %27, null
  call void @llvm.assume(i1 %28)
  %29 = load ptr, ptr %9, align 8
  %30 = load ptr, ptr %29, align 8
  store ptr %30, ptr %5, align 8
  br label %32

31:                                               ; preds = %4
  store ptr null, ptr %5, align 8
  br label %32

32:                                               ; preds = %31, %25
  %33 = load ptr, ptr %5, align 8
  store ptr %33, ptr %15, align 8
  %34 = load ptr, ptr %15, align 8
  %35 = icmp ne ptr %34, null
  br i1 %35, label %36, label %78

36:                                               ; preds = %32
  %37 = load ptr, ptr %14, align 8
  %38 = icmp ne ptr %37, null
  br i1 %38, label %39, label %41

39:                                               ; preds = %36
  %40 = load ptr, ptr %14, align 8
  store i8 1, ptr %40, align 1
  br label %41

41:                                               ; preds = %39, %36
  %42 = load i32, ptr %13, align 4
  %43 = icmp ne i32 %42, 0
  br i1 %43, label %44, label %64

44:                                               ; preds = %41
  %45 = load ptr, ptr %15, align 8
  %46 = getelementptr inbounds %struct._zend_ini_entry, ptr %45, i32 0, i32 11
  %47 = load i8, ptr %46, align 2
  %48 = zext i8 %47 to i32
  %49 = icmp ne i32 %48, 0
  br i1 %49, label %50, label %64

50:                                               ; preds = %44
  %51 = load ptr, ptr %15, align 8
  %52 = getelementptr inbounds %struct._zend_ini_entry, ptr %51, i32 0, i32 6
  %53 = load ptr, ptr %52, align 8
  %54 = icmp ne ptr %53, null
  br i1 %54, label %55, label %61

55:                                               ; preds = %50
  %56 = load ptr, ptr %15, align 8
  %57 = getelementptr inbounds %struct._zend_ini_entry, ptr %56, i32 0, i32 6
  %58 = load ptr, ptr %57, align 8
  %59 = getelementptr inbounds %struct._zend_string, ptr %58, i32 0, i32 3
  %60 = getelementptr inbounds [1 x i8], ptr %59, i64 0, i64 0
  br label %62

61:                                               ; preds = %50
  br label %62

62:                                               ; preds = %61, %55
  %63 = phi ptr [ %60, %55 ], [ null, %61 ]
  store ptr %63, ptr %10, align 8
  br label %84

64:                                               ; preds = %44, %41
  %65 = load ptr, ptr %15, align 8
  %66 = getelementptr inbounds %struct._zend_ini_entry, ptr %65, i32 0, i32 5
  %67 = load ptr, ptr %66, align 8
  %68 = icmp ne ptr %67, null
  br i1 %68, label %69, label %75

69:                                               ; preds = %64
  %70 = load ptr, ptr %15, align 8
  %71 = getelementptr inbounds %struct._zend_ini_entry, ptr %70, i32 0, i32 5
  %72 = load ptr, ptr %71, align 8
  %73 = getelementptr inbounds %struct._zend_string, ptr %72, i32 0, i32 3
  %74 = getelementptr inbounds [1 x i8], ptr %73, i64 0, i64 0
  br label %76

75:                                               ; preds = %64
  br label %76

76:                                               ; preds = %75, %69
  %77 = phi ptr [ %74, %69 ], [ null, %75 ]
  store ptr %77, ptr %10, align 8
  br label %84

78:                                               ; preds = %32
  %79 = load ptr, ptr %14, align 8
  %80 = icmp ne ptr %79, null
  br i1 %80, label %81, label %83

81:                                               ; preds = %78
  %82 = load ptr, ptr %14, align 8
  store i8 0, ptr %82, align 1
  br label %83

83:                                               ; preds = %81, %78
  store ptr null, ptr %10, align 8
  br label %84

84:                                               ; preds = %83, %76, %62
  %85 = load ptr, ptr %10, align 8
  ret ptr %85
}

; Function Attrs: nounwind uwtable
define ptr @zend_ini_string(ptr noundef %0, i64 noundef %1, i32 noundef %2) #0 {
  %4 = alloca ptr, align 8
  %5 = alloca ptr, align 8
  %6 = alloca i64, align 8
  %7 = alloca i32, align 4
  %8 = alloca i8, align 1
  %9 = alloca ptr, align 8
  store ptr %0, ptr %5, align 8
  store i64 %1, ptr %6, align 8
  store i32 %2, ptr %7, align 4
  store i8 1, ptr %8, align 1
  %10 = load ptr, ptr %5, align 8
  %11 = load i64, ptr %6, align 8
  %12 = load i32, ptr %7, align 4
  %13 = call ptr @zend_ini_string_ex(ptr noundef %10, i64 noundef %11, i32 noundef %12, ptr noundef %8)
  store ptr %13, ptr %9, align 8
  %14 = load i8, ptr %8, align 1
  %15 = trunc i8 %14 to i1
  br i1 %15, label %17, label %16

16:                                               ; preds = %3
  store ptr null, ptr %4, align 8
  br label %24

17:                                               ; preds = %3
  %18 = load ptr, ptr %9, align 8
  %19 = icmp ne ptr %18, null
  br i1 %19, label %21, label %20

20:                                               ; preds = %17
  store ptr @.str, ptr %9, align 8
  br label %21

21:                                               ; preds = %20, %17
  br label %22

22:                                               ; preds = %21
  %23 = load ptr, ptr %9, align 8
  store ptr %23, ptr %4, align 8
  br label %24

24:                                               ; preds = %22, %16
  %25 = load ptr, ptr %4, align 8
  ret ptr %25
}